; Function Attrs: mustprogress uwtable
define noundef ptr @_ZN6icu_7520DecimalFormatSymbols24createWithLastResortDataER10UErrorCode(ptr nocapture noundef nonnull align 4 dereferenceable(4) %status) local_unnamed_addr #1 align 2 personality ptr @__gxx_personality_v0 {
entry:
  %0 = load i32, ptr %status, align 4
  %cmp.i = icmp slt i32 %0, 1
  br i1 %cmp.i, label %if.end, label %return

if.end:                                           ; preds = %entry
  %call1 = tail call noundef ptr @_ZN6icu_757UMemorynwEm(i64 noundef 2888) #15
  %new.isnull = icmp eq ptr %call1, null
  br i1 %new.isnull, label %if.then2, label %new.notnull

new.notnull:                                      ; preds = %if.end
  invoke void @_ZN6icu_7520DecimalFormatSymbolsC1Ev(ptr noundef nonnull align 8 dereferenceable(2883) %call1)
          to label %return unwind label %lpad

if.then2:                                         ; preds = %if.end
  store i32 7, ptr %status, align 4
  br label %return

lpad:                                             ; preds = %new.notnull
  %1 = landingpad { ptr, i32 }
          cleanup
  tail call void @_ZN6icu_757UMemorydlEPv(ptr noundef nonnull %call1) #15
  resume { ptr, i32 } %1

return:                                           ; preds = %new.notnull, %if.then2, %entry
  %retval.0 = phi ptr [ null, %entry ], [ null, %if.then2 ], [ %call1, %new.notnull ]
  ret ptr %retval.0
}